target datalayout = "e-m:e-p270:32:32-p271:32:32-p272:64:64-i64:64-i128:128-f80:128-n8:16:32:64-S128"
target triple = "x86_64-pc-linux-gnu"

%struct.sh_st = type { ptr, i64, ptr, i64, ptr, i64, i64, ptr, ptr, i64 }

@sh = internal global %struct.sh_st zeroinitializer, align 8
@.str.1 = private unnamed_addr constant [28 x i8] c"../openssl/crypto/mem_sec.c\00", align 1
@.str.7 = private unnamed_addr constant [55 x i8] c"assertion failed: list >= 0 && list < sh.freelist_size\00", align 1
@.str.8 = private unnamed_addr constant [74 x i8] c"assertion failed: ((ptr - sh.arena) & ((sh.arena_size >> list) - 1)) == 0\00", align 1
@.str.9 = private unnamed_addr constant [52 x i8] c"assertion failed: bit > 0 && bit < sh.bittable_size\00", align 1
@.str.12 = private unnamed_addr constant [36 x i8] c"assertion failed: WITHIN_ARENA(ptr)\00", align 1
@.str.23 = private unnamed_addr constant [53 x i8] c"assertion failed: sh_testbit(ptr, list, sh.bittable)\00", align 1
@.str.28 = private unnamed_addr constant [33 x i8] c"assertion failed: (bit & 1) == 0\00", align 1

; Function Attrs: nounwind uwtable
define internal i32 @sh_testbit(ptr noundef %0, i32 noundef %1, ptr noundef %2) #0 {
  %4 = alloca ptr, align 8
  %5 = alloca i32, align 4
  %6 = alloca ptr, align 8
  %7 = alloca i64, align 8
  store ptr %0, ptr %4, align 8, !tbaa !26
  store i32 %1, ptr %5, align 4, !tbaa !7
  store ptr %2, ptr %6, align 8, !tbaa !26
  call void @llvm.lifetime.start.p0(i64 8, ptr %7) #7
  %8 = load i32, ptr %5, align 4, !tbaa !7
  %9 = icmp sge i32 %8, 0
  br i1 %9, label %10, label %16

10:                                               ; preds = %3
  %11 = load i32, ptr %5, align 4, !tbaa !7
  %12 = sext i32 %11 to i64
  %13 = load i64, ptr getelementptr inbounds nuw (%struct.sh_st, ptr @sh, i32 0, i32 5), align 8, !tbaa !17
  %14 = icmp slt i64 %12, %13
  br i1 %14, label %15, label %16

15:                                               ; preds = %10
  br label %18

16:                                               ; preds = %10, %3
  call void @OPENSSL_die(ptr noundef @.str.7, ptr noundef @.str.1, i32 noundef 363) #8
  unreachable

17:                                               ; No predecessors!
  br label %18

18:                                               ; preds = %17, %15
  %19 = load ptr, ptr %4, align 8, !tbaa !26
  %20 = load ptr, ptr getelementptr inbounds nuw (%struct.sh_st, ptr @sh, i32 0, i32 2), align 8, !tbaa !25
  %21 = ptrtoint ptr %19 to i64
  %22 = ptrtoint ptr %20 to i64
  %23 = sub i64 %21, %22
  %24 = load i64, ptr getelementptr inbounds nuw (%struct.sh_st, ptr @sh, i32 0, i32 3), align 8, !tbaa !11
  %25 = load i32, ptr %5, align 4, !tbaa !7
  %26 = zext i32 %25 to i64
  %27 = lshr i64 %24, %26
  %28 = sub i64 %27, 1
  %29 = and i64 %23, %28
  %30 = icmp eq i64 %29, 0
  br i1 %30, label %31, label %32

31:                                               ; preds = %18
  br label %34

32:                                               ; preds = %18
  call void @OPENSSL_die(ptr noundef @.str.8, ptr noundef @.str.1, i32 noundef 364) #8
  unreachable

33:                                               ; No predecessors!
  br label %34

34:                                               ; preds = %33, %31
  %35 = load i32, ptr %5, align 4, !tbaa !7
  %36 = zext i32 %35 to i64
  %37 = shl i64 1, %36
  %38 = load ptr, ptr %4, align 8, !tbaa !26
  %39 = load ptr, ptr getelementptr inbounds nuw (%struct.sh_st, ptr @sh, i32 0, i32 2), align 8, !tbaa !25
  %40 = ptrtoint ptr %38 to i64
  %41 = ptrtoint ptr %39 to i64
  %42 = sub i64 %40, %41
  %43 = load i64, ptr getelementptr inbounds nuw (%struct.sh_st, ptr @sh, i32 0, i32 3), align 8, !tbaa !11
  %44 = load i32, ptr %5, align 4, !tbaa !7
  %45 = zext i32 %44 to i64
  %46 = lshr i64 %43, %45
  %47 = udiv i64 %42, %46
  %48 = add i64 %37, %47
  store i64 %48, ptr %7, align 8, !tbaa !3
  %49 = load i64, ptr %7, align 8, !tbaa !3
  %50 = icmp ugt i64 %49, 0
  br i1 %50, label %51, label %56

51:                                               ; preds = %34
  %52 = load i64, ptr %7, align 8, !tbaa !3
  %53 = load i64, ptr getelementptr inbounds nuw (%struct.sh_st, ptr @sh, i32 0, i32 9), align 8, !tbaa !16
  %54 = icmp ult i64 %52, %53
  br i1 %54, label %55, label %56

55:                                               ; preds = %51
  br label %58

56:                                               ; preds = %51, %34
  call void @OPENSSL_die(ptr noundef @.str.9, ptr noundef @.str.1, i32 noundef 366) #8
  unreachable

57:                                               ; No predecessors!
  br label %58

58:                                               ; preds = %57, %55
  %59 = load ptr, ptr %6, align 8, !tbaa !26
  %60 = load i64, ptr %7, align 8, !tbaa !3
  %61 = lshr i64 %60, 3
  %62 = getelementptr inbounds nuw i8, ptr %59, i64 %61
  %63 = load i8, ptr %62, align 1, !tbaa !31
  %64 = zext i8 %63 to i64
  %65 = load i64, ptr %7, align 8, !tbaa !3
  %66 = and i64 %65, 7
  %67 = shl i64 1, %66
  %68 = and i64 %64, %67
  %69 = trunc i64 %68 to i32
  call void @llvm.lifetime.end.p0(i64 8, ptr %7) #7
  ret i32 %69
}

; Function Attrs: nounwind uwtable
define internal i64 @sh_getlist(ptr noundef %0) #0 {
  %2 = alloca ptr, align 8
  %3 = alloca i64, align 8
  %4 = alloca i64, align 8
  store ptr %0, ptr %2, align 8, !tbaa !26
  call void @llvm.lifetime.start.p0(i64 8, ptr %3) #7
  %5 = load i64, ptr getelementptr inbounds nuw (%struct.sh_st, ptr @sh, i32 0, i32 5), align 8, !tbaa !17
  %6 = sub nsw i64 %5, 1
  store i64 %6, ptr %3, align 8, !tbaa !3
  call void @llvm.lifetime.start.p0(i64 8, ptr %4) #7
  %7 = load i64, ptr getelementptr inbounds nuw (%struct.sh_st, ptr @sh, i32 0, i32 3), align 8, !tbaa !11
  %8 = load ptr, ptr %2, align 8, !tbaa !26
  %9 = getelementptr inbounds nuw i8, ptr %8, i64 %7
  %10 = load ptr, ptr getelementptr inbounds nuw (%struct.sh_st, ptr @sh, i32 0, i32 2), align 8, !tbaa !25
  %11 = ptrtoint ptr %9 to i64
  %12 = ptrtoint ptr %10 to i64
  %13 = sub i64 %11, %12
  %14 = load i64, ptr getelementptr inbounds nuw (%struct.sh_st, ptr @sh, i32 0, i32 6), align 8, !tbaa !15
  %15 = udiv i64 %13, %14
  store i64 %15, ptr %4, align 8, !tbaa !3
  br label %16

16:                                               ; preds = %40, %1
  %17 = load i64, ptr %4, align 8, !tbaa !3
  %18 = icmp ne i64 %17, 0
  br i1 %18, label %19, label %45

19:                                               ; preds = %16
  %20 = load ptr, ptr getelementptr inbounds nuw (%struct.sh_st, ptr @sh, i32 0, i32 7), align 8, !tbaa !21
  %21 = load i64, ptr %4, align 8, !tbaa !3
  %22 = lshr i64 %21, 3
  %23 = getelementptr inbounds nuw i8, ptr %20, i64 %22
  %24 = load i8, ptr %23, align 1, !tbaa !31
  %25 = zext i8 %24 to i64
  %26 = load i64, ptr %4, align 8, !tbaa !3
  %27 = and i64 %26, 7
  %28 = shl i64 1, %27
  %29 = and i64 %25, %28
  %30 = icmp ne i64 %29, 0
  br i1 %30, label %31, label %32

31:                                               ; preds = %19
  br label %45

32:                                               ; preds = %19
  %33 = load i64, ptr %4, align 8, !tbaa !3
  %34 = and i64 %33, 1
  %35 = icmp eq i64 %34, 0
  br i1 %35, label %36, label %37

36:                                               ; preds = %32
  br label %39

37:                                               ; preds = %32
  call void @OPENSSL_die(ptr noundef @.str.28, ptr noundef @.str.1, i32 noundef 352) #8
  unreachable

38:                                               ; No predecessors!
  br label %39

39:                                               ; preds = %38, %36
  br label %40

40:                                               ; preds = %39
  %41 = load i64, ptr %4, align 8, !tbaa !3
  %42 = lshr i64 %41, 1
  store i64 %42, ptr %4, align 8, !tbaa !3
  %43 = load i64, ptr %3, align 8, !tbaa !3
  %44 = add nsw i64 %43, -1
  store i64 %44, ptr %3, align 8, !tbaa !3
  br label %16, !llvm.loop !39

45:                                               ; preds = %31, %16
  %46 = load i64, ptr %3, align 8, !tbaa !3
  call void @llvm.lifetime.end.p0(i64 8, ptr %4) #7
  call void @llvm.lifetime.end.p0(i64 8, ptr %3) #7
  ret i64 %46
}

; Function Attrs: nounwind uwtable
define internal i64 @sh_actual_size(ptr noundef %0) #0 {
  %2 = alloca i64, align 8
  %3 = alloca ptr, align 8
  %4 = alloca i32, align 4
  %5 = alloca i32, align 4
  store ptr %0, ptr %3, align 8, !tbaa !26
  call void @llvm.lifetime.start.p0(i64 4, ptr %4) #7
  %6 = load ptr, ptr %3, align 8, !tbaa !26
  %7 = load ptr, ptr getelementptr inbounds nuw (%struct.sh_st, ptr @sh, i32 0, i32 2), align 8, !tbaa !25
  %8 = icmp uge ptr %6, %7
  br i1 %8, label %9, label %16

9:                                                ; preds = %1
  %10 = load ptr, ptr %3, align 8, !tbaa !26
  %11 = load ptr, ptr getelementptr inbounds nuw (%struct.sh_st, ptr @sh, i32 0, i32 2), align 8, !tbaa !25
  %12 = load i64, ptr getelementptr inbounds nuw (%struct.sh_st, ptr @sh, i32 0, i32 3), align 8, !tbaa !11
  %13 = getelementptr inbounds nuw i8, ptr %11, i64 %12
  %14 = icmp ult ptr %10, %13
  br i1 %14, label %15, label %16

15:                                               ; preds = %9
  br label %18

16:                                               ; preds = %9, %1
  call void @OPENSSL_die(ptr noundef @.str.12, ptr noundef @.str.1, i32 noundef 742) #8
  unreachable

17:                                               ; No predecessors!
  br label %18

18:                                               ; preds = %17, %15
  %19 = load ptr, ptr %3, align 8, !tbaa !26
  %20 = load ptr, ptr getelementptr inbounds nuw (%struct.sh_st, ptr @sh, i32 0, i32 2), align 8, !tbaa !25
  %21 = icmp uge ptr %19, %20
  br i1 %21, label %22, label %28

22:                                               ; preds = %18
  %23 = load ptr, ptr %3, align 8, !tbaa !26
  %24 = load ptr, ptr getelementptr inbounds nuw (%struct.sh_st, ptr @sh, i32 0, i32 2), align 8, !tbaa !25
  %25 = load i64, ptr getelementptr inbounds nuw (%struct.sh_st, ptr @sh, i32 0, i32 3), align 8, !tbaa !11
  %26 = getelementptr inbounds nuw i8, ptr %24, i64 %25
  %27 = icmp ult ptr %23, %26
  br i1 %27, label %29, label %28

28:                                               ; preds = %22, %18
  store i64 0, ptr %2, align 8
  store i32 1, ptr %5, align 4
  br label %47

29:                                               ; preds = %22
  %30 = load ptr, ptr %3, align 8, !tbaa !26
  %31 = call i64 @sh_getlist(ptr noundef %30)
  %32 = trunc i64 %31 to i32
  store i32 %32, ptr %4, align 4, !tbaa !7
  %33 = load ptr, ptr %3, align 8, !tbaa !26
  %34 = load i32, ptr %4, align 4, !tbaa !7
  %35 = load ptr, ptr getelementptr inbounds nuw (%struct.sh_st, ptr @sh, i32 0, i32 7), align 8, !tbaa !21
  %36 = call i32 @sh_testbit(ptr noundef %33, i32 noundef %34, ptr noundef %35)
  %37 = icmp ne i32 %36, 0
  br i1 %37, label %38, label %39

38:                                               ; preds = %29
  br label %41

39:                                               ; preds = %29
  call void @OPENSSL_die(ptr noundef @.str.23, ptr noundef @.str.1, i32 noundef 746) #8
  unreachable

40:                                               ; No predecessors!
  br label %41

41:                                               ; preds = %40, %38
  %42 = load i64, ptr getelementptr inbounds nuw (%struct.sh_st, ptr @sh, i32 0, i32 3), align 8, !tbaa !11
  %43 = load i32, ptr %4, align 4, !tbaa !7
  %44 = zext i32 %43 to i64
  %45 = shl i64 1, %44
  %46 = udiv i64 %42, %45
  store i64 %46, ptr %2, align 8
  store i32 1, ptr %5, align 4
  br label %47

47:                                               ; preds = %41, %28
  call void @llvm.lifetime.end.p0(i64 4, ptr %4) #7
  %48 = load i64, ptr %2, align 8
  ret i64 %48
}