; Function Attrs: nounwind uwtable
define internal fastcc i64 @sh_actual_size(ptr noundef %0) unnamed_addr #0 {
  %2 = load ptr, ptr getelementptr inbounds nuw (i8, ptr @sh, i64 16), align 8, !tbaa !22
  %.not = icmp uge ptr %0, %2
  %3 = load i64, ptr getelementptr inbounds nuw (i8, ptr @sh, i64 24), align 8
  %4 = getelementptr inbounds nuw i8, ptr %2, i64 %3
  %5 = icmp ult ptr %0, %4
  %or.cond = select i1 %.not, i1 %5, i1 false
  br i1 %or.cond, label %7, label %6

6:                                                ; preds = %1
  tail call void @OPENSSL_die(ptr noundef nonnull @.str.12, ptr noundef nonnull @.str.1, i32 noundef 742) #9
  unreachable

7:                                                ; preds = %1
  %8 = load i64, ptr getelementptr inbounds nuw (i8, ptr @sh, i64 40), align 8, !tbaa !16
  %9 = getelementptr inbounds nuw i8, ptr %0, i64 %3
  %10 = ptrtoint ptr %9 to i64
  %11 = ptrtoint ptr %2 to i64
  %12 = sub i64 %10, %11
  %13 = load i64, ptr getelementptr inbounds nuw (i8, ptr @sh, i64 48), align 8, !tbaa !12
  %.0710.i = add nsw i64 %8, -1
  %.not11.i = icmp ugt i64 %13, %12
  %.pre = load ptr, ptr getelementptr inbounds nuw (i8, ptr @sh, i64 56), align 8, !tbaa !18
  br i1 %.not11.i, label %sh_getlist.exit, label %.lr.ph.i

.lr.ph.i:                                         ; preds = %7
  %14 = udiv i64 %12, %13
  br label %17

15:                                               ; preds = %25
  %16 = lshr exact i64 %.012.i, 1
  %.07.i = add nsw i64 %.0713.i, -1
  %.not.i = icmp eq i64 %.012.i, 0
  br i1 %.not.i, label %sh_getlist.exit, label %17, !llvm.loop !37

17:                                               ; preds = %15, %.lr.ph.i
  %.0713.i = phi i64 [ %.0710.i, %.lr.ph.i ], [ %.07.i, %15 ]
  %.012.i = phi i64 [ %14, %.lr.ph.i ], [ %16, %15 ]
  %18 = lshr i64 %.012.i, 3
  %19 = getelementptr inbounds nuw i8, ptr %.pre, i64 %18
  %20 = load i8, ptr %19, align 1, !tbaa !30
  %21 = zext i8 %20 to i64
  %22 = and i64 %.012.i, 7
  %23 = shl nuw nsw i64 1, %22
  %24 = and i64 %23, %21
  %.not8.i = icmp eq i64 %24, 0
  br i1 %.not8.i, label %25, label %sh_getlist.exit

25:                                               ; preds = %17
  %26 = and i64 %.012.i, 1
  %27 = icmp eq i64 %26, 0
  br i1 %27, label %15, label %28

28:                                               ; preds = %25
  tail call void @OPENSSL_die(ptr noundef nonnull @.str.28, ptr noundef nonnull @.str.1, i32 noundef 352) #9
  unreachable

sh_getlist.exit:                                  ; preds = %15, %17, %7
  %.07.lcssa.i = phi i64 [ %.0710.i, %7 ], [ %.07.i, %15 ], [ %.0713.i, %17 ]
  %29 = and i64 %.07.lcssa.i, 2147483648
  %30 = icmp eq i64 %29, 0
  %31 = and i64 %.07.lcssa.i, 4294967295
  %32 = icmp sgt i64 %8, %31
  %or.cond.i = select i1 %30, i1 %32, i1 false
  br i1 %or.cond.i, label %34, label %33

33:                                               ; preds = %sh_getlist.exit
  tail call void @OPENSSL_die(ptr noundef nonnull @.str.7, ptr noundef nonnull @.str.1, i32 noundef 363) #9
  unreachable

34:                                               ; preds = %sh_getlist.exit
  %35 = ptrtoint ptr %0 to i64
  %36 = sub i64 %35, %11
  %37 = lshr i64 %3, %31
  %38 = add i64 %37, -1
  %39 = and i64 %38, %36
  %40 = icmp eq i64 %39, 0
  br i1 %40, label %42, label %41

41:                                               ; preds = %34
  tail call void @OPENSSL_die(ptr noundef nonnull @.str.8, ptr noundef nonnull @.str.1, i32 noundef 364) #9
  unreachable

42:                                               ; preds = %34
  %43 = shl nuw i64 1, %31
  %44 = udiv i64 %36, %37
  %45 = add i64 %44, %43
  %.not.i13 = icmp ne i64 %45, 0
  %46 = load i64, ptr getelementptr inbounds nuw (i8, ptr @sh, i64 72), align 8
  %47 = icmp ult i64 %45, %46
  %or.cond15.i = select i1 %.not.i13, i1 %47, i1 false
  br i1 %or.cond15.i, label %sh_testbit.exit, label %48

48:                                               ; preds = %42
  tail call void @OPENSSL_die(ptr noundef nonnull @.str.9, ptr noundef nonnull @.str.1, i32 noundef 366) #9
  unreachable

sh_testbit.exit:                                  ; preds = %42
  %49 = lshr i64 %45, 3
  %50 = getelementptr inbounds nuw i8, ptr %.pre, i64 %49
  %51 = load i8, ptr %50, align 1, !tbaa !30
  %52 = zext i8 %51 to i64
  %53 = and i64 %45, 7
  %54 = shl nuw nsw i64 1, %53
  %55 = and i64 %54, %52
  %.not10 = icmp eq i64 %55, 0
  br i1 %.not10, label %56, label %57

56:                                               ; preds = %sh_testbit.exit
  tail call void @OPENSSL_die(ptr noundef nonnull @.str.23, ptr noundef nonnull @.str.1, i32 noundef 746) #9
  unreachable

57:                                               ; preds = %sh_testbit.exit
  %58 = and i64 %.07.lcssa.i, 2147483647
  %59 = lshr i64 %3, %58
  ret i64 %59
}